(dp1
S'friendlyName'
p2
(dp3
S'length'
p4
I512
sS'unique'
p5
I00
sS'sortable'
p6
I3
sS'sql'
p7
S'CHAR(512)'
p8
sS'notnull'
p9
I00
sS'type'
p10
S'string'
p11
ssg10
(dp12
g4
I512
sg5
I00
sg6
I2
sg7
S'CHAR(512)'
p13
sg9
I00
sg10
g11
ssS'id'
p14
(dp15
g4
I512
sg5
I00
sg6
I1
sg7
S'INTEGER PRIMARY KEY AUTOINCREMENT'
p16
sg9
I00
sg10
g14
ss.