(dp1
S'image_id'
p2
(dp3
S'length'
p4
I512
sS'unique'
p5
I00
sS'sortable'
p6
I2
sS'sql'
p7
S'INTEGER REFERENCES Image (id) ON DELETE CASCADE'
p8
sS'notnull'
p9
I00
sS'type'
p10
S'reference Image'
p11
ssS'id'
p12
(dp13
g4
I512
sg5
I00
sg6
I1
sg7
S'INTEGER PRIMARY KEY AUTOINCREMENT'
p14
sg9
I00
sg10
g12
ssS'rejected'
p15
(dp16
g4
I512
sg5
I00
sg6
I4
sg7
S'CHAR(1)'
p17
sg9
I00
sg10
S'boolean'
p18
ssS'transcriber_id'
p19
(dp20
g4
I512
sg5
I00
sg6
I3
sg7
S'INTEGER REFERENCES auth_user (id) ON DELETE CASCADE'
p21
sg9
I00
sg10
S'reference auth_user'
p22
ss.